; ModuleID = '31/45.c'
source_filename = "31/45.c"
target datalayout = "e-m:e-p270:32:32-p271:32:32-p272:64:64-i64:64-f80:128-n8:16:32:64-S128"
target triple = "x86_64-pc-linux-gnu"

%struct.student = type { [10 x i8], [20 x i8], [2 x i8], i32, [30 x i8], [30 x i8], %struct.student* }

@.str = private unnamed_addr constant [13 x i8] c"%s%s%s%d%s%s\00", align 1
@.str.1 = private unnamed_addr constant [3 x i8] c"%s\00", align 1
@.str.2 = private unnamed_addr constant [4 x i8] c"end\00", align 1
@.str.3 = private unnamed_addr constant [11 x i8] c"%s%s%d%s%s\00", align 1
@.str.4 = private unnamed_addr constant [19 x i8] c"%s %s %s %d %s %s\0A\00", align 1

; Function Attrs: noinline nounwind uwtable
define dso_local i32 @main() #0 {
  %1 = alloca i32, align 4
  %2 = alloca %struct.student*, align 8
  %3 = alloca %struct.student*, align 8
  %4 = alloca %struct.student*, align 8
  %5 = alloca %struct.student*, align 8
  store i32 0, i32* %1, align 4
  %6 = call noalias i8* @malloc(i64 104) #4
  %7 = bitcast i8* %6 to %struct.student*
  store %struct.student* %7, %struct.student** %5, align 8
  store %struct.student* %7, %struct.student** %4, align 8
  %8 = load %struct.student*, %struct.student** %4, align 8
  %9 = getelementptr inbounds %struct.student, %struct.student* %8, i32 0, i32 0
  %10 = getelementptr inbounds [10 x i8], [10 x i8]* %9, i64 0, i64 0
  %11 = load %struct.student*, %struct.student** %4, align 8
  %12 = getelementptr inbounds %struct.student, %struct.student* %11, i32 0, i32 1
  %13 = getelementptr inbounds [20 x i8], [20 x i8]* %12, i64 0, i64 0
  %14 = load %struct.student*, %struct.student** %4, align 8
  %15 = getelementptr inbounds %struct.student, %struct.student* %14, i32 0, i32 2
  %16 = getelementptr inbounds [2 x i8], [2 x i8]* %15, i64 0, i64 0
  %17 = load %struct.student*, %struct.student** %4, align 8
  %18 = getelementptr inbounds %struct.student, %struct.student* %17, i32 0, i32 3
  %19 = load %struct.student*, %struct.student** %4, align 8
  %20 = getelementptr inbounds %struct.student, %struct.student* %19, i32 0, i32 4
  %21 = getelementptr inbounds [30 x i8], [30 x i8]* %20, i64 0, i64 0
  %22 = load %struct.student*, %struct.student** %4, align 8
  %23 = getelementptr inbounds %struct.student, %struct.student* %22, i32 0, i32 5
  %24 = getelementptr inbounds [30 x i8], [30 x i8]* %23, i64 0, i64 0
  %25 = call i32 (i8*, ...) @__isoc99_scanf(i8* getelementptr inbounds ([13 x i8], [13 x i8]* @.str, i64 0, i64 0), i8* %10, i8* %13, i8* %16, i32* %18, i8* %21, i8* %24)
  %26 = load %struct.student*, %struct.student** %4, align 8
  %27 = getelementptr inbounds %struct.student, %struct.student* %26, i32 0, i32 6
  store %struct.student* null, %struct.student** %27, align 8
  br label %28

28:                                               ; preds = %60, %0
  %29 = call noalias i8* @malloc(i64 104) #4
  %30 = bitcast i8* %29 to %struct.student*
  store %struct.student* %30, %struct.student** %4, align 8
  %31 = load %struct.student*, %struct.student** %4, align 8
  %32 = getelementptr inbounds %struct.student, %struct.student* %31, i32 0, i32 0
  %33 = getelementptr inbounds [10 x i8], [10 x i8]* %32, i64 0, i64 0
  %34 = call i32 (i8*, ...) @__isoc99_scanf(i8* getelementptr inbounds ([3 x i8], [3 x i8]* @.str.1, i64 0, i64 0), i8* %33)
  %35 = load %struct.student*, %struct.student** %4, align 8
  %36 = getelementptr inbounds %struct.student, %struct.student* %35, i32 0, i32 0
  %37 = getelementptr inbounds [10 x i8], [10 x i8]* %36, i64 0, i64 0
  %38 = call i32 @strcmp(i8* %37, i8* getelementptr inbounds ([4 x i8], [4 x i8]* @.str.2, i64 0, i64 0)) #5
  %39 = icmp eq i32 %38, 0
  br i1 %39, label %40, label %41

40:                                               ; preds = %28
  br label %66

41:                                               ; preds = %28
  %42 = load %struct.student*, %struct.student** %4, align 8
  %43 = getelementptr inbounds %struct.student, %struct.student* %42, i32 0, i32 1
  %44 = getelementptr inbounds [20 x i8], [20 x i8]* %43, i64 0, i64 0
  %45 = load %struct.student*, %struct.student** %4, align 8
  %46 = getelementptr inbounds %struct.student, %struct.student* %45, i32 0, i32 2
  %47 = getelementptr inbounds [2 x i8], [2 x i8]* %46, i64 0, i64 0
  %48 = load %struct.student*, %struct.student** %4, align 8
  %49 = getelementptr inbounds %struct.student, %struct.student* %48, i32 0, i32 3
  %50 = load %struct.student*, %struct.student** %4, align 8
  %51 = getelementptr inbounds %struct.student, %struct.student* %50, i32 0, i32 4
  %52 = load %struct.student*, %struct.student** %4, align 8
  %53 = getelementptr inbounds %struct.student, %struct.student* %52, i32 0, i32 5
  %54 = getelementptr inbounds [30 x i8], [30 x i8]* %53, i64 0, i64 0
  %55 = call i32 (i8*, ...) @__isoc99_scanf(i8* getelementptr inbounds ([11 x i8], [11 x i8]* @.str.3, i64 0, i64 0), i8* %44, i8* %47, i32* %49, [30 x i8]* %51, i8* %54)
  %56 = load %struct.student*, %struct.student** %5, align 8
  %57 = load %struct.student*, %struct.student** %4, align 8
  %58 = getelementptr inbounds %struct.student, %struct.student* %57, i32 0, i32 6
  store %struct.student* %56, %struct.student** %58, align 8
  %59 = load %struct.student*, %struct.student** %4, align 8
  store %struct.student* %59, %struct.student** %5, align 8
  br label %60

60:                                               ; preds = %41
  %61 = load %struct.student*, %struct.student** %4, align 8
  %62 = getelementptr inbounds %struct.student, %struct.student* %61, i32 0, i32 0
  %63 = getelementptr inbounds [10 x i8], [10 x i8]* %62, i64 0, i64 0
  %64 = call i32 @strcmp(i8* %63, i8* getelementptr inbounds ([4 x i8], [4 x i8]* @.str.2, i64 0, i64 0)) #5
  %65 = icmp ne i32 %64, 0
  br i1 %65, label %28, label %66

66:                                               ; preds = %60, %40
  %67 = load %struct.student*, %struct.student** %5, align 8
  store %struct.student* %67, %struct.student** %2, align 8
  %68 = load %struct.student*, %struct.student** %2, align 8
  store %struct.student* %68, %struct.student** %3, align 8
  br label %69

69:                                               ; preds = %92, %66
  %70 = load %struct.student*, %struct.student** %3, align 8
  %71 = icmp ne %struct.student* %70, null
  br i1 %71, label %72, label %96

72:                                               ; preds = %69
  %73 = load %struct.student*, %struct.student** %3, align 8
  %74 = getelementptr inbounds %struct.student, %struct.student* %73, i32 0, i32 0
  %75 = getelementptr inbounds [10 x i8], [10 x i8]* %74, i64 0, i64 0
  %76 = load %struct.student*, %struct.student** %3, align 8
  %77 = getelementptr inbounds %struct.student, %struct.student* %76, i32 0, i32 1
  %78 = getelementptr inbounds [20 x i8], [20 x i8]* %77, i64 0, i64 0
  %79 = load %struct.student*, %struct.student** %3, align 8
  %80 = getelementptr inbounds %struct.student, %struct.student* %79, i32 0, i32 2
  %81 = getelementptr inbounds [2 x i8], [2 x i8]* %80, i64 0, i64 0
  %82 = load %struct.student*, %struct.student** %3, align 8
  %83 = getelementptr inbounds %struct.student, %struct.student* %82, i32 0, i32 3
  %84 = load i32, i32* %83, align 8
  %85 = load %struct.student*, %struct.student** %3, align 8
  %86 = getelementptr inbounds %struct.student, %struct.student* %85, i32 0, i32 4
  %87 = getelementptr inbounds [30 x i8], [30 x i8]* %86, i64 0, i64 0
  %88 = load %struct.student*, %struct.student** %3, align 8
  %89 = getelementptr inbounds %struct.student, %struct.student* %88, i32 0, i32 5
  %90 = getelementptr inbounds [30 x i8], [30 x i8]* %89, i64 0, i64 0
  %91 = call i32 (i8*, ...) @printf(i8* getelementptr inbounds ([19 x i8], [19 x i8]* @.str.4, i64 0, i64 0), i8* %75, i8* %78, i8* %81, i32 %84, i8* %87, i8* %90)
  br label %92

92:                                               ; preds = %72
  %93 = load %struct.student*, %struct.student** %3, align 8
  %94 = getelementptr inbounds %struct.student, %struct.student* %93, i32 0, i32 6
  %95 = load %struct.student*, %struct.student** %94, align 8
  store %struct.student* %95, %struct.student** %3, align 8
  br label %69

96:                                               ; preds = %69
  ret i32 0
}

; Function Attrs: nounwind
declare dso_local noalias i8* @malloc(i64) #1

declare dso_local i32 @__isoc99_scanf(i8*, ...) #2

; Function Attrs: nounwind readonly
declare dso_local i32 @strcmp(i8*, i8*) #3

declare dso_local i32 @printf(i8*, ...) #2


!llvm.module.flags = !{!0}
!llvm.ident = !{!1}

!0 = !{i32 1, !"wchar_size", i32 4}
!1 = !{!"clang version 10.0.0-4ubuntu1 "}
